; Function Attrs: mustprogress nofree norecurse nosync nounwind willreturn memory(write, argmem: readwrite, inaccessiblemem: none) uwtable
define dso_local void @_ZN4node11UDPWrapBaseD2Ev(ptr nocapture noundef nonnull align 8 dereferenceable(16) %this) unnamed_addr #8 align 2 {
entry:
  store ptr getelementptr inbounds ({ [10 x ptr] }, ptr @_ZTVN4node11UDPWrapBaseE, i64 0, i32 0, i64 2), ptr %this, align 8
  %listener_.i = getelementptr inbounds i8, ptr %this, i64 8
  %0 = load ptr, ptr %listener_.i, align 8
  %cmp.not.i = icmp eq ptr %0, null
  br i1 %cmp.not.i, label %_ZN4node11UDPWrapBase12set_listenerEPNS_11UDPListenerE.exit, label %if.then.i

if.then.i:                                        ; preds = %entry
  %wrap_.i = getelementptr inbounds i8, ptr %0, i64 8
  store ptr null, ptr %wrap_.i, align 8
  br label %_ZN4node11UDPWrapBase12set_listenerEPNS_11UDPListenerE.exit

_ZN4node11UDPWrapBase12set_listenerEPNS_11UDPListenerE.exit: ; preds = %entry, %if.then.i
  store ptr null, ptr %listener_.i, align 8
  ret void
}